target datalayout = "e-m:e-p270:32:32-p271:32:32-p272:64:64-i64:64-i128:128-f80:128-n8:16:32:64-S128"
target triple = "x86_64-pc-linux-gnu"

%struct.PageHeaderData = type { %struct.PageXLogRecPtr, i16, i16, i16, i16, i16, i16, i32, [0 x %struct.ItemIdData] }
%struct.PageXLogRecPtr = type { i32, i32 }
%struct.ItemIdData = type { i32 }
%struct.SpGistPageOpaqueData = type { i16, i16, i16, i16 }

@.str.1 = private unnamed_addr constant [10 x i8] c"spgxlog.c\00", align 1
@.str.3 = private unnamed_addr constant [51 x i8] c"failed to add item of size %u to SPGiST index page\00", align 1
@.str.4 = private unnamed_addr constant [49 x i8] c"SPGiST tuple to be replaced is not a placeholder\00", align 1
@__func__.addOrReplaceTuple = private unnamed_addr constant [18 x i8] c"addOrReplaceTuple\00", align 1

; Function Attrs: inlinehint nounwind uwtable
define internal void @PageValidateSpecialPointer(ptr noundef %0) #2 {
  %2 = alloca ptr, align 8
  store ptr %0, ptr %2, align 8
  ret void
}

; Function Attrs: inlinehint nounwind uwtable
define internal ptr @PageGetItem(ptr noundef %0, ptr noundef %1) #2 {
  %3 = alloca ptr, align 8
  %4 = alloca ptr, align 8
  store ptr %0, ptr %3, align 8
  store ptr %1, ptr %4, align 8
  %5 = load ptr, ptr %3, align 8
  %6 = load ptr, ptr %4, align 8
  %7 = load i32, ptr %6, align 4
  %8 = and i32 %7, 32767
  %9 = sext i32 %8 to i64
  %10 = getelementptr inbounds i8, ptr %5, i64 %9
  ret ptr %10
}

; Function Attrs: inlinehint nounwind uwtable
define internal ptr @PageGetItemId(ptr noundef %0, i16 noundef zeroext %1) #2 {
  %3 = alloca ptr, align 8
  %4 = alloca i16, align 2
  store ptr %0, ptr %3, align 8
  store i16 %1, ptr %4, align 2
  %5 = load ptr, ptr %3, align 8
  %6 = getelementptr inbounds nuw %struct.PageHeaderData, ptr %5, i32 0, i32 8
  %7 = load i16, ptr %4, align 2
  %8 = zext i16 %7 to i32
  %9 = sub i32 %8, 1
  %10 = sext i32 %9 to i64
  %11 = getelementptr inbounds [0 x %struct.ItemIdData], ptr %6, i64 0, i64 %10
  ret ptr %11
}

; Function Attrs: inlinehint nounwind uwtable
define internal zeroext i16 @PageGetMaxOffsetNumber(ptr noundef %0) #2 {
  %2 = alloca i16, align 2
  %3 = alloca ptr, align 8
  %4 = alloca ptr, align 8
  %5 = alloca i32, align 4
  store ptr %0, ptr %3, align 8
  call void @llvm.lifetime.start.p0(i64 8, ptr %4) #7
  %6 = load ptr, ptr %3, align 8
  store ptr %6, ptr %4, align 8
  %7 = load ptr, ptr %4, align 8
  %8 = getelementptr inbounds nuw %struct.PageHeaderData, ptr %7, i32 0, i32 3
  %9 = load i16, ptr %8, align 4
  %10 = zext i16 %9 to i64
  %11 = icmp ule i64 %10, 24
  br i1 %11, label %12, label %13

12:                                               ; preds = %1
  store i16 0, ptr %2, align 2
  store i32 1, ptr %5, align 4
  br label %21

13:                                               ; preds = %1
  %14 = load ptr, ptr %4, align 8
  %15 = getelementptr inbounds nuw %struct.PageHeaderData, ptr %14, i32 0, i32 3
  %16 = load i16, ptr %15, align 4
  %17 = zext i16 %16 to i64
  %18 = sub i64 %17, 24
  %19 = udiv i64 %18, 4
  %20 = trunc i64 %19 to i16
  store i16 %20, ptr %2, align 2
  store i32 1, ptr %5, align 4
  br label %21

21:                                               ; preds = %13, %12
  call void @llvm.lifetime.end.p0(i64 8, ptr %4) #7
  %22 = load i16, ptr %2, align 2
  ret i16 %22
}

; Function Attrs: nounwind uwtable
define internal void @addOrReplaceTuple(ptr noundef %0, ptr noundef %1, i32 noundef %2, i16 noundef zeroext %3) #0 {
  %5 = alloca ptr, align 8
  %6 = alloca ptr, align 8
  %7 = alloca i32, align 4
  %8 = alloca i16, align 2
  %9 = alloca ptr, align 8
  store ptr %0, ptr %5, align 8
  store ptr %1, ptr %6, align 8
  store i32 %2, ptr %7, align 4
  store i16 %3, ptr %8, align 2
  %10 = load i16, ptr %8, align 2
  %11 = zext i16 %10 to i32
  %12 = load ptr, ptr %5, align 8
  %13 = call zeroext i16 @PageGetMaxOffsetNumber(ptr noundef %12)
  %14 = zext i16 %13 to i32
  %15 = icmp sle i32 %11, %14
  br i1 %15, label %16, label %51

16:                                               ; preds = %4
  call void @llvm.lifetime.start.p0(i64 8, ptr %9) #7
  %17 = load ptr, ptr %5, align 8
  %18 = load ptr, ptr %5, align 8
  %19 = load i16, ptr %8, align 2
  %20 = call ptr @PageGetItemId(ptr noundef %18, i16 noundef zeroext %19)
  %21 = call ptr @PageGetItem(ptr noundef %17, ptr noundef %20)
  store ptr %21, ptr %9, align 8
  %22 = load ptr, ptr %9, align 8
  %23 = load i32, ptr %22, align 4
  %24 = and i32 %23, 3
  %25 = icmp ne i32 %24, 3
  br i1 %25, label %26, label %37

26:                                               ; preds = %16
  br label %27

27:                                               ; preds = %26
  br i1 true, label %28, label %30

28:                                               ; preds = %27
  %29 = call zeroext i1 @errstart_cold(i32 noundef 21, ptr noundef null) #8
  br i1 %29, label %32, label %34

30:                                               ; preds = %27
  %31 = call zeroext i1 @errstart(i32 noundef 21, ptr noundef null)
  br i1 %31, label %32, label %34

32:                                               ; preds = %30, %28
  %33 = call i32 (ptr, ...) @errmsg_internal(ptr noundef @.str.4)
  call void @errfinish(ptr noundef @.str.1, i32 noundef 58, ptr noundef @__func__.addOrReplaceTuple)
  br label %34

34:                                               ; preds = %32, %30, %28
  unreachable

35:                                               ; No predecessors!
  br label %36

36:                                               ; preds = %35
  br label %37

37:                                               ; preds = %36, %16
  %38 = load ptr, ptr %5, align 8
  call void @PageValidateSpecialPointer(ptr noundef %38)
  %39 = load ptr, ptr %5, align 8
  %40 = load ptr, ptr %5, align 8
  %41 = getelementptr inbounds nuw %struct.PageHeaderData, ptr %40, i32 0, i32 5
  %42 = load i16, ptr %41, align 4
  %43 = zext i16 %42 to i32
  %44 = sext i32 %43 to i64
  %45 = getelementptr inbounds i8, ptr %39, i64 %44
  %46 = getelementptr inbounds nuw %struct.SpGistPageOpaqueData, ptr %45, i32 0, i32 2
  %47 = load i16, ptr %46, align 2
  %48 = add i16 %47, -1
  store i16 %48, ptr %46, align 2
  %49 = load ptr, ptr %5, align 8
  %50 = load i16, ptr %8, align 2
  call void @PageIndexTupleDelete(ptr noundef %49, i16 noundef zeroext %50)
  call void @llvm.lifetime.end.p0(i64 8, ptr %9) #7
  br label %51

51:                                               ; preds = %37, %4
  %52 = load ptr, ptr %5, align 8
  %53 = load ptr, ptr %6, align 8
  %54 = load i32, ptr %7, align 4
  %55 = sext i32 %54 to i64
  %56 = load i16, ptr %8, align 2
  %57 = call zeroext i16 @PageAddItemExtended(ptr noundef %52, ptr noundef %53, i64 noundef %55, i16 noundef zeroext %56, i32 noundef 0)
  %58 = zext i16 %57 to i32
  %59 = load i16, ptr %8, align 2
  %60 = zext i16 %59 to i32
  %61 = icmp ne i32 %58, %60
  br i1 %61, label %62, label %73

62:                                               ; preds = %51
  br label %63

63:                                               ; preds = %62
  br i1 true, label %64, label %66

64:                                               ; preds = %63
  %65 = call zeroext i1 @errstart_cold(i32 noundef 21, ptr noundef null) #8
  br i1 %65, label %68, label %71

66:                                               ; preds = %63
  %67 = call zeroext i1 @errstart(i32 noundef 21, ptr noundef null)
  br i1 %67, label %68, label %71

68:                                               ; preds = %66, %64
  %69 = load i32, ptr %7, align 4
  %70 = call i32 (ptr, ...) @errmsg_internal(ptr noundef @.str.3, i32 noundef %69)
  call void @errfinish(ptr noundef @.str.1, i32 noundef 70, ptr noundef @__func__.addOrReplaceTuple)
  br label %71

71:                                               ; preds = %68, %66, %64
  unreachable

72:                                               ; No predecessors!
  br label %73

73:                                               ; preds = %72, %51
  ret void
}