; Function Attrs: nounwind uwtable
define internal fastcc void @addOrReplaceTuple(ptr noundef %0, ptr noundef %1, i32 noundef range(i32 0, 1073741824) %2, i16 noundef zeroext %3) unnamed_addr #0 {
  %5 = getelementptr i8, ptr %0, i64 12
  %.val = load i16, ptr %5, align 4
  %6 = icmp ult i16 %.val, 25
  %7 = zext i16 %.val to i32
  %8 = add nuw nsw i32 %7, 262120
  %9 = lshr i32 %8, 2
  %10 = trunc i32 %9 to i16
  %.0.i = select i1 %6, i16 0, i16 %10
  %.not = icmp ugt i16 %3, %.0.i
  br i1 %.not, label %32, label %11

11:                                               ; preds = %4
  %12 = getelementptr inbounds nuw i8, ptr %0, i64 24
  %13 = zext i16 %3 to i64
  %14 = add nsw i64 %13, -1
  %15 = getelementptr inbounds [0 x %struct.ItemIdData], ptr %12, i64 0, i64 %14
  %.val18 = load i32, ptr %15, align 4
  %16 = and i32 %.val18, 32767
  %17 = zext nneg i32 %16 to i64
  %18 = getelementptr inbounds nuw i8, ptr %0, i64 %17
  %19 = load i32, ptr %18, align 4
  %20 = and i32 %19, 3
  %.not16 = icmp eq i32 %20, 3
  br i1 %.not16, label %24, label %21

21:                                               ; preds = %11
  %22 = tail call zeroext i1 @errstart_cold(i32 noundef 21, ptr noundef null) #7
  tail call void @llvm.assume(i1 %22)
  %23 = tail call i32 (ptr, ...) @errmsg_internal(ptr noundef nonnull @.str.4) #6
  tail call void @errfinish(ptr noundef nonnull @.str.1, i32 noundef 58, ptr noundef nonnull @__func__.addOrReplaceTuple) #6
  unreachable

24:                                               ; preds = %11
  %25 = getelementptr inbounds nuw i8, ptr %0, i64 16
  %26 = load i16, ptr %25, align 4
  %27 = zext i16 %26 to i64
  %28 = getelementptr inbounds nuw i8, ptr %0, i64 %27
  %29 = getelementptr inbounds nuw i8, ptr %28, i64 4
  %30 = load i16, ptr %29, align 2
  %31 = add i16 %30, -1
  store i16 %31, ptr %29, align 2
  tail call void @PageIndexTupleDelete(ptr noundef nonnull %0, i16 noundef zeroext %3) #6
  br label %32

32:                                               ; preds = %24, %4
  %33 = zext nneg i32 %2 to i64
  %34 = tail call zeroext i16 @PageAddItemExtended(ptr noundef nonnull %0, ptr noundef %1, i64 noundef %33, i16 noundef zeroext %3, i32 noundef 0) #6
  %.not17 = icmp eq i16 %34, %3
  br i1 %.not17, label %38, label %35

35:                                               ; preds = %32
  %36 = tail call zeroext i1 @errstart_cold(i32 noundef 21, ptr noundef null) #7
  tail call void @llvm.assume(i1 %36)
  %37 = tail call i32 (ptr, ...) @errmsg_internal(ptr noundef nonnull @.str.3, i32 noundef %2) #6
  tail call void @errfinish(ptr noundef nonnull @.str.1, i32 noundef 70, ptr noundef nonnull @__func__.addOrReplaceTuple) #6
  unreachable

38:                                               ; preds = %32
  ret void
}